; ModuleID = '10/892.c'
source_filename = "10/892.c"
target datalayout = "e-m:e-p270:32:32-p271:32:32-p272:64:64-i64:64-f80:128-n8:16:32:64-S128"
target triple = "x86_64-pc-linux-gnu"

@.str = private unnamed_addr constant [3 x i8] c"%d\00", align 1

; Function Attrs: noinline nounwind uwtable
define dso_local i32 @main() #0 {
  %1 = alloca i32, align 4
  %2 = alloca i32, align 4
  %3 = alloca i32, align 4
  %4 = alloca i32, align 4
  %5 = alloca i32, align 4
  %6 = alloca i32, align 4
  %7 = alloca i32, align 4
  %8 = alloca [30 x i32], align 16
  %9 = alloca [30 x i32], align 16
  store i32 0, i32* %1, align 4
  store i32 0, i32* %7, align 4
  %10 = call i32 (i8*, ...) @__isoc99_scanf(i8* getelementptr inbounds ([3 x i8], [3 x i8]* @.str, i64 0, i64 0), i32* %5)
  store i32 0, i32* %2, align 4
  br label %11

11:                                               ; preds = %20, %0
  %12 = load i32, i32* %2, align 4
  %13 = load i32, i32* %5, align 4
  %14 = icmp slt i32 %12, %13
  br i1 %14, label %15, label %23

15:                                               ; preds = %11
  %16 = load i32, i32* %2, align 4
  %17 = sext i32 %16 to i64
  %18 = getelementptr inbounds [30 x i32], [30 x i32]* %8, i64 0, i64 %17
  %19 = call i32 (i8*, ...) @__isoc99_scanf(i8* getelementptr inbounds ([3 x i8], [3 x i8]* @.str, i64 0, i64 0), i32* %18)
  br label %20

20:                                               ; preds = %15
  %21 = load i32, i32* %2, align 4
  %22 = add nsw i32 %21, 1
  store i32 %22, i32* %2, align 4
  br label %11

23:                                               ; preds = %11
  %24 = load i32, i32* %5, align 4
  %25 = sub nsw i32 %24, 1
  store i32 %25, i32* %2, align 4
  br label %26

26:                                               ; preds = %88, %23
  %27 = load i32, i32* %2, align 4
  %28 = icmp sge i32 %27, 0
  br i1 %28, label %29, label %91

29:                                               ; preds = %26
  %30 = load i32, i32* %2, align 4
  %31 = sext i32 %30 to i64
  %32 = getelementptr inbounds [30 x i32], [30 x i32]* %9, i64 0, i64 %31
  store i32 1, i32* %32, align 4
  %33 = load i32, i32* %5, align 4
  %34 = sub nsw i32 %33, 1
  store i32 %34, i32* %3, align 4
  br label %35

35:                                               ; preds = %69, %29
  %36 = load i32, i32* %3, align 4
  %37 = load i32, i32* %2, align 4
  %38 = icmp sge i32 %36, %37
  br i1 %38, label %39, label %72

39:                                               ; preds = %35
  %40 = load i32, i32* %2, align 4
  %41 = sext i32 %40 to i64
  %42 = getelementptr inbounds [30 x i32], [30 x i32]* %8, i64 0, i64 %41
  %43 = load i32, i32* %42, align 4
  %44 = load i32, i32* %3, align 4
  %45 = sext i32 %44 to i64
  %46 = getelementptr inbounds [30 x i32], [30 x i32]* %8, i64 0, i64 %45
  %47 = load i32, i32* %46, align 4
  %48 = icmp sge i32 %43, %47
  br i1 %48, label %49, label %68

49:                                               ; preds = %39
  store i32 1, i32* %7, align 4
  %50 = load i32, i32* %2, align 4
  %51 = sext i32 %50 to i64
  %52 = getelementptr inbounds [30 x i32], [30 x i32]* %9, i64 0, i64 %51
  %53 = load i32, i32* %52, align 4
  %54 = load i32, i32* %3, align 4
  %55 = sext i32 %54 to i64
  %56 = getelementptr inbounds [30 x i32], [30 x i32]* %9, i64 0, i64 %55
  %57 = load i32, i32* %56, align 4
  %58 = icmp slt i32 %53, %57
  br i1 %58, label %59, label %67

59:                                               ; preds = %49
  %60 = load i32, i32* %3, align 4
  %61 = sext i32 %60 to i64
  %62 = getelementptr inbounds [30 x i32], [30 x i32]* %9, i64 0, i64 %61
  %63 = load i32, i32* %62, align 4
  %64 = load i32, i32* %2, align 4
  %65 = sext i32 %64 to i64
  %66 = getelementptr inbounds [30 x i32], [30 x i32]* %9, i64 0, i64 %65
  store i32 %63, i32* %66, align 4
  br label %67

67:                                               ; preds = %59, %49
  br label %68

68:                                               ; preds = %67, %39
  br label %69

69:                                               ; preds = %68
  %70 = load i32, i32* %3, align 4
  %71 = add nsw i32 %70, -1
  store i32 %71, i32* %3, align 4
  br label %35

72:                                               ; preds = %35
  %73 = load i32, i32* %2, align 4
  %74 = sext i32 %73 to i64
  %75 = getelementptr inbounds [30 x i32], [30 x i32]* %9, i64 0, i64 %74
  %76 = load i32, i32* %75, align 4
  %77 = add nsw i32 %76, 1
  %78 = load i32, i32* %2, align 4
  %79 = sext i32 %78 to i64
  %80 = getelementptr inbounds [30 x i32], [30 x i32]* %9, i64 0, i64 %79
  store i32 %77, i32* %80, align 4
  %81 = load i32, i32* %7, align 4
  %82 = icmp eq i32 %81, 0
  br i1 %82, label %83, label %87

83:                                               ; preds = %72
  %84 = load i32, i32* %2, align 4
  %85 = sext i32 %84 to i64
  %86 = getelementptr inbounds [30 x i32], [30 x i32]* %9, i64 0, i64 %85
  store i32 1, i32* %86, align 4
  br label %87

87:                                               ; preds = %83, %72
  br label %88

88:                                               ; preds = %87
  %89 = load i32, i32* %2, align 4
  %90 = add nsw i32 %89, -1
  store i32 %90, i32* %2, align 4
  br label %26

91:                                               ; preds = %26
  store i32 0, i32* %2, align 4
  br label %92

92:                                               ; preds = %111, %91
  %93 = load i32, i32* %2, align 4
  %94 = load i32, i32* %5, align 4
  %95 = icmp slt i32 %93, %94
  br i1 %95, label %96, label %114

96:                                               ; preds = %92
  %97 = getelementptr inbounds [30 x i32], [30 x i32]* %9, i64 0, i64 0
  %98 = load i32, i32* %97, align 16
  %99 = load i32, i32* %2, align 4
  %100 = sext i32 %99 to i64
  %101 = getelementptr inbounds [30 x i32], [30 x i32]* %9, i64 0, i64 %100
  %102 = load i32, i32* %101, align 4
  %103 = icmp slt i32 %98, %102
  br i1 %103, label %104, label %110

104:                                              ; preds = %96
  %105 = load i32, i32* %2, align 4
  %106 = sext i32 %105 to i64
  %107 = getelementptr inbounds [30 x i32], [30 x i32]* %9, i64 0, i64 %106
  %108 = load i32, i32* %107, align 4
  %109 = getelementptr inbounds [30 x i32], [30 x i32]* %9, i64 0, i64 0
  store i32 %108, i32* %109, align 16
  br label %110

110:                                              ; preds = %104, %96
  br label %111

111:                                              ; preds = %110
  %112 = load i32, i32* %2, align 4
  %113 = add nsw i32 %112, 1
  store i32 %113, i32* %2, align 4
  br label %92

114:                                              ; preds = %92
  %115 = getelementptr inbounds [30 x i32], [30 x i32]* %9, i64 0, i64 0
  %116 = load i32, i32* %115, align 16
  %117 = sub nsw i32 %116, 1
  %118 = call i32 (i8*, ...) @printf(i8* getelementptr inbounds ([3 x i8], [3 x i8]* @.str, i64 0, i64 0), i32 %117)
  %119 = load i32, i32* %1, align 4
  ret i32 %119
}

declare dso_local i32 @__isoc99_scanf(i8*, ...) #1

declare dso_local i32 @printf(i8*, ...) #1


!llvm.module.flags = !{!0}
!llvm.ident = !{!1}

!0 = !{i32 1, !"wchar_size", i32 4}
!1 = !{!"clang version 10.0.0-4ubuntu1 "}
